; Function Attrs: nounwind uwtable
define void @dt_dev_pixelpipe_set_icc(ptr noundef captures(none) initializes((2496, 2500), (2512, 2516)) %0, i32 noundef %1, ptr noundef %2, i32 noundef %3) local_unnamed_addr #0 {
  %5 = getelementptr inbounds nuw i8, ptr %0, i64 2496
  store i32 %1, ptr %5, align 16, !tbaa !155
  %6 = getelementptr inbounds nuw i8, ptr %0, i64 2504
  %7 = load ptr, ptr %6, align 8, !tbaa !156
  tail call void @g_free(ptr noundef %7) #27
  %.not = icmp eq ptr %2, null
  %8 = select i1 %.not, ptr @.str.6, ptr %2
  %9 = tail call noalias ptr @g_strdup(ptr noundef nonnull %8) #27
  store ptr %9, ptr %6, align 8, !tbaa !156
  %10 = getelementptr inbounds nuw i8, ptr %0, i64 2512
  store i32 %3, ptr %10, align 16, !tbaa !157
  ret void
}